target datalayout = "e-m:e-p270:32:32-p271:32:32-p272:64:64-i64:64-i128:128-f80:128-n8:16:32:64-S128"
target triple = "x86_64-pc-linux-gnu"

%"class.marisa::Trie" = type { %"class.marisa::scoped_ptr" }
%"class.marisa::scoped_ptr" = type { ptr }

; Function Attrs: mustprogress nounwind uwtable
define linkonce_odr void @_ZN6marisa10scoped_ptrINS_8grimoire4trie9LoudsTrieEED2Ev(ptr noundef nonnull align 8 dereferenceable(8) %0) unnamed_addr #5 comdat align 2 {
  %2 = alloca ptr, align 8
  store ptr %0, ptr %2, align 8, !tbaa !8
  %3 = load ptr, ptr %2, align 8
  %4 = getelementptr inbounds nuw %"class.marisa::scoped_ptr", ptr %3, i32 0, i32 0
  %5 = load ptr, ptr %4, align 8, !tbaa !10
  %6 = icmp eq ptr %5, null
  br i1 %6, label %8, label %7

7:                                                ; preds = %1
  call void @_ZN6marisa8grimoire4trie9LoudsTrieD1Ev(ptr noundef nonnull align 8 dereferenceable(1136) %5) #3
  call void @_ZdlPvm(ptr noundef %5, i64 noundef 1136) #10
  br label %8

8:                                                ; preds = %7, %1
  ret void
}

; Function Attrs: mustprogress nounwind uwtable
define void @_ZN6marisa4TrieD2Ev(ptr noundef nonnull align 8 dereferenceable(8) %0) unnamed_addr #5 align 2 {
  %2 = alloca ptr, align 8
  store ptr %0, ptr %2, align 8, !tbaa !3
  %3 = load ptr, ptr %2, align 8
  %4 = getelementptr inbounds nuw %"class.marisa::Trie", ptr %3, i32 0, i32 0
  call void @_ZN6marisa10scoped_ptrINS_8grimoire4trie9LoudsTrieEED2Ev(ptr noundef nonnull align 8 dereferenceable(8) %4) #3
  ret void
}