; Function Attrs: mustprogress nounwind uwtable
define void @_ZN6marisa4TrieD2Ev(ptr noundef nonnull readonly align 8 captures(none) dereferenceable(8) %0) unnamed_addr #4 align 2 {
  %2 = load ptr, ptr %0, align 8, !tbaa !3
  %3 = icmp eq ptr %2, null
  br i1 %3, label %_ZN6marisa10scoped_ptrINS_8grimoire4trie9LoudsTrieEED2Ev.exit, label %4

4:                                                ; preds = %1
  tail call void @_ZN6marisa8grimoire4trie9LoudsTrieD1Ev(ptr noundef nonnull align 8 dereferenceable(1136) %2) #12
  tail call void @_ZdlPvm(ptr noundef nonnull %2, i64 noundef 1136) #13
  br label %_ZN6marisa10scoped_ptrINS_8grimoire4trie9LoudsTrieEED2Ev.exit

_ZN6marisa10scoped_ptrINS_8grimoire4trie9LoudsTrieEED2Ev.exit: ; preds = %1, %4
  ret void
}